target datalayout = "e-m:e-p270:32:32-p271:32:32-p272:64:64-i64:64-i128:128-f80:128-n8:16:32:64-S128"
target triple = "x86_64-unknown-linux-gnu"

%"struct.OpenColorIO_v2_4dev::PackedImageDesc::Impl" = type <{ ptr, ptr, ptr, ptr, ptr, i32, i32, i64, i64, i64, i64, i64, i64, i8, i8, [6 x i8] }>
%"class.OpenColorIO_v2_4dev::PackedImageDesc" = type { %"class.OpenColorIO_v2_4dev::ImageDesc", ptr }
%"class.OpenColorIO_v2_4dev::ImageDesc" = type { ptr }

@_ZTIN19OpenColorIO_v2_4dev9ExceptionE = external constant ptr
@.str.19 = private unnamed_addr constant [51 x i8] c"PackedImageDesc Error: Invalid number of channels.\00", align 1

; Function Attrs: mustprogress nounwind uwtable
define void @_ZN19OpenColorIO_v2_4dev9ImageDescD2Ev(ptr noundef nonnull align 8 dereferenceable(8) %this) unnamed_addr #6 align 2 {
entry:
  %this.addr = alloca ptr, align 8
  store ptr %this, ptr %this.addr, align 8
  ret void
}

; Function Attrs: mustprogress nounwind uwtable
define linkonce_odr hidden noundef zeroext i1 @_ZNK19OpenColorIO_v2_4dev15PackedImageDesc4Impl7isFloatEv(ptr noundef nonnull align 8 dereferenceable(98) %this) #6 comdat align 2 {
entry:
  %this.addr = alloca ptr, align 8
  store ptr %this, ptr %this.addr, align 8
  %this1 = load ptr, ptr %this.addr, align 8
  %m_chanStrideBytes = getelementptr inbounds %"struct.OpenColorIO_v2_4dev::PackedImageDesc::Impl", ptr %this1, i32 0, i32 10
  %0 = load i64, ptr %m_chanStrideBytes, align 8
  %cmp = icmp eq i64 %0, 4
  br i1 %cmp, label %land.rhs, label %land.end

land.rhs:                                         ; preds = %entry
  %m_bitDepth = getelementptr inbounds %"struct.OpenColorIO_v2_4dev::PackedImageDesc::Impl", ptr %this1, i32 0, i32 6
  %1 = load i32, ptr %m_bitDepth, align 4
  %cmp2 = icmp eq i32 %1, 8
  br label %land.end

land.end:                                         ; preds = %land.rhs, %entry
  %2 = phi i1 [ false, %entry ], [ %cmp2, %land.rhs ]
  ret i1 %2
}

; Function Attrs: mustprogress nounwind uwtable
define linkonce_odr hidden noundef ptr @_ZN19OpenColorIO_v2_4dev15PackedImageDesc7getImplEv(ptr noundef nonnull align 8 dereferenceable(16) %this) #6 comdat align 2 {
entry:
  %this.addr = alloca ptr, align 8
  store ptr %this, ptr %this.addr, align 8
  %this1 = load ptr, ptr %this.addr, align 8
  %m_impl = getelementptr inbounds %"class.OpenColorIO_v2_4dev::PackedImageDesc", ptr %this1, i32 0, i32 1
  %0 = load ptr, ptr %m_impl, align 8
  ret ptr %0
}

; Function Attrs: mustprogress nounwind uwtable
define linkonce_odr hidden void @_ZN19OpenColorIO_v2_4dev15PackedImageDesc4ImplC2Ev(ptr noundef nonnull align 8 dereferenceable(98) %this) unnamed_addr #6 comdat align 2 {
entry:
  %this.addr = alloca ptr, align 8
  store ptr %this, ptr %this.addr, align 8
  %this1 = load ptr, ptr %this.addr, align 8
  %m_data = getelementptr inbounds %"struct.OpenColorIO_v2_4dev::PackedImageDesc::Impl", ptr %this1, i32 0, i32 0
  store ptr null, ptr %m_data, align 8
  %m_rData = getelementptr inbounds %"struct.OpenColorIO_v2_4dev::PackedImageDesc::Impl", ptr %this1, i32 0, i32 1
  store ptr null, ptr %m_rData, align 8
  %m_gData = getelementptr inbounds %"struct.OpenColorIO_v2_4dev::PackedImageDesc::Impl", ptr %this1, i32 0, i32 2
  store ptr null, ptr %m_gData, align 8
  %m_bData = getelementptr inbounds %"struct.OpenColorIO_v2_4dev::PackedImageDesc::Impl", ptr %this1, i32 0, i32 3
  store ptr null, ptr %m_bData, align 8
  %m_aData = getelementptr inbounds %"struct.OpenColorIO_v2_4dev::PackedImageDesc::Impl", ptr %this1, i32 0, i32 4
  store ptr null, ptr %m_aData, align 8
  %m_chanOrder = getelementptr inbounds %"struct.OpenColorIO_v2_4dev::PackedImageDesc::Impl", ptr %this1, i32 0, i32 5
  store i32 0, ptr %m_chanOrder, align 8
  %m_bitDepth = getelementptr inbounds %"struct.OpenColorIO_v2_4dev::PackedImageDesc::Impl", ptr %this1, i32 0, i32 6
  store i32 0, ptr %m_bitDepth, align 4
  %m_width = getelementptr inbounds %"struct.OpenColorIO_v2_4dev::PackedImageDesc::Impl", ptr %this1, i32 0, i32 7
  store i64 0, ptr %m_width, align 8
  %m_height = getelementptr inbounds %"struct.OpenColorIO_v2_4dev::PackedImageDesc::Impl", ptr %this1, i32 0, i32 8
  store i64 0, ptr %m_height, align 8
  %m_numChannels = getelementptr inbounds %"struct.OpenColorIO_v2_4dev::PackedImageDesc::Impl", ptr %this1, i32 0, i32 9
  store i64 0, ptr %m_numChannels, align 8
  %m_chanStrideBytes = getelementptr inbounds %"struct.OpenColorIO_v2_4dev::PackedImageDesc::Impl", ptr %this1, i32 0, i32 10
  store i64 0, ptr %m_chanStrideBytes, align 8
  %m_xStrideBytes = getelementptr inbounds %"struct.OpenColorIO_v2_4dev::PackedImageDesc::Impl", ptr %this1, i32 0, i32 11
  store i64 0, ptr %m_xStrideBytes, align 8
  %m_yStrideBytes = getelementptr inbounds %"struct.OpenColorIO_v2_4dev::PackedImageDesc::Impl", ptr %this1, i32 0, i32 12
  store i64 0, ptr %m_yStrideBytes, align 8
  %m_isRGBAPacked = getelementptr inbounds %"struct.OpenColorIO_v2_4dev::PackedImageDesc::Impl", ptr %this1, i32 0, i32 13
  store i8 0, ptr %m_isRGBAPacked, align 8
  %m_isFloat = getelementptr inbounds %"struct.OpenColorIO_v2_4dev::PackedImageDesc::Impl", ptr %this1, i32 0, i32 14
  store i8 0, ptr %m_isFloat, align 1
  ret void
}

; Function Attrs: mustprogress nounwind uwtable
define void @_ZN19OpenColorIO_v2_4dev9ImageDescC2Ev(ptr noundef nonnull align 8 dereferenceable(8) %this) unnamed_addr #6 align 2 {
entry:
  %this.addr = alloca ptr, align 8
  store ptr %this, ptr %this.addr, align 8
  %this1 = load ptr, ptr %this.addr, align 8
  store ptr getelementptr inbounds ({ [15 x ptr] }, ptr @_ZTVN19OpenColorIO_v2_4dev9ImageDescE, i32 0, i32 0, i32 2), ptr %this1, align 8
  ret void
}

; Function Attrs: mustprogress uwtable
define void @_ZN19OpenColorIO_v2_4dev15PackedImageDescC2EPvlll(ptr noundef nonnull align 8 dereferenceable(16) %this, ptr noundef %data, i64 noundef %width, i64 noundef %height, i64 noundef %numChannels) unnamed_addr #4 align 2 personality ptr @__gxx_personality_v0 {
entry:
  %this.addr = alloca ptr, align 8
  %data.addr = alloca ptr, align 8
  %width.addr = alloca i64, align 8
  %height.addr = alloca i64, align 8
  %numChannels.addr = alloca i64, align 8
  %exn.slot = alloca ptr, align 8
  %ehselector.slot = alloca i32, align 4
  %oneChannelInBytes = alloca i32, align 4
  store ptr %this, ptr %this.addr, align 8
  store ptr %data, ptr %data.addr, align 8
  store i64 %width, ptr %width.addr, align 8
  store i64 %height, ptr %height.addr, align 8
  store i64 %numChannels, ptr %numChannels.addr, align 8
  %this1 = load ptr, ptr %this.addr, align 8
  call void @_ZN19OpenColorIO_v2_4dev9ImageDescC2Ev(ptr noundef nonnull align 8 dereferenceable(8) %this1)
  store ptr getelementptr inbounds ({ [15 x ptr] }, ptr @_ZTVN19OpenColorIO_v2_4dev15PackedImageDescE, i32 0, i32 0, i32 2), ptr %this1, align 8
  %m_impl = getelementptr inbounds %"class.OpenColorIO_v2_4dev::PackedImageDesc", ptr %this1, i32 0, i32 1
  %call = invoke noalias noundef nonnull ptr @_Znwm(i64 noundef 104) #16
          to label %invoke.cont unwind label %lpad

invoke.cont:                                      ; preds = %entry
  call void @_ZN19OpenColorIO_v2_4dev15PackedImageDesc4ImplC2Ev(ptr noundef nonnull align 8 dereferenceable(98) %call) #3
  store ptr %call, ptr %m_impl, align 8
  %0 = load ptr, ptr %data.addr, align 8
  %call3 = invoke noundef ptr @_ZN19OpenColorIO_v2_4dev15PackedImageDesc7getImplEv(ptr noundef nonnull align 8 dereferenceable(16) %this1)
          to label %invoke.cont2 unwind label %lpad

invoke.cont2:                                     ; preds = %invoke.cont
  %m_data = getelementptr inbounds %"struct.OpenColorIO_v2_4dev::PackedImageDesc::Impl", ptr %call3, i32 0, i32 0
  store ptr %0, ptr %m_data, align 8
  %1 = load i64, ptr %width.addr, align 8
  %call5 = invoke noundef ptr @_ZN19OpenColorIO_v2_4dev15PackedImageDesc7getImplEv(ptr noundef nonnull align 8 dereferenceable(16) %this1)
          to label %invoke.cont4 unwind label %lpad

invoke.cont4:                                     ; preds = %invoke.cont2
  %m_width = getelementptr inbounds %"struct.OpenColorIO_v2_4dev::PackedImageDesc::Impl", ptr %call5, i32 0, i32 7
  store i64 %1, ptr %m_width, align 8
  %2 = load i64, ptr %height.addr, align 8
  %call7 = invoke noundef ptr @_ZN19OpenColorIO_v2_4dev15PackedImageDesc7getImplEv(ptr noundef nonnull align 8 dereferenceable(16) %this1)
          to label %invoke.cont6 unwind label %lpad

invoke.cont6:                                     ; preds = %invoke.cont4
  %m_height = getelementptr inbounds %"struct.OpenColorIO_v2_4dev::PackedImageDesc::Impl", ptr %call7, i32 0, i32 8
  store i64 %2, ptr %m_height, align 8
  %3 = load i64, ptr %numChannels.addr, align 8
  %call9 = invoke noundef ptr @_ZN19OpenColorIO_v2_4dev15PackedImageDesc7getImplEv(ptr noundef nonnull align 8 dereferenceable(16) %this1)
          to label %invoke.cont8 unwind label %lpad

invoke.cont8:                                     ; preds = %invoke.cont6
  %m_numChannels = getelementptr inbounds %"struct.OpenColorIO_v2_4dev::PackedImageDesc::Impl", ptr %call9, i32 0, i32 9
  store i64 %3, ptr %m_numChannels, align 8
  %call11 = invoke noundef ptr @_ZN19OpenColorIO_v2_4dev15PackedImageDesc7getImplEv(ptr noundef nonnull align 8 dereferenceable(16) %this1)
          to label %invoke.cont10 unwind label %lpad

invoke.cont10:                                    ; preds = %invoke.cont8
  %m_bitDepth = getelementptr inbounds %"struct.OpenColorIO_v2_4dev::PackedImageDesc::Impl", ptr %call11, i32 0, i32 6
  store i32 8, ptr %m_bitDepth, align 4
  %4 = load i64, ptr %numChannels.addr, align 8
  %cmp = icmp eq i64 %4, 4
  br i1 %cmp, label %if.then, label %if.else

if.then:                                          ; preds = %invoke.cont10
  %call13 = invoke noundef ptr @_ZN19OpenColorIO_v2_4dev15PackedImageDesc7getImplEv(ptr noundef nonnull align 8 dereferenceable(16) %this1)
          to label %invoke.cont12 unwind label %lpad

invoke.cont12:                                    ; preds = %if.then
  %m_chanOrder = getelementptr inbounds %"struct.OpenColorIO_v2_4dev::PackedImageDesc::Impl", ptr %call13, i32 0, i32 5
  store i32 0, ptr %m_chanOrder, align 8
  br label %if.end22

lpad:                                             ; preds = %invoke.cont55, %invoke.cont52, %invoke.cont50, %invoke.cont48, %invoke.cont46, %invoke.cont44, %invoke.cont42, %invoke.cont41, %invoke.cont39, %invoke.cont37, %invoke.cont33, %invoke.cont31, %invoke.cont28, %invoke.cont25, %invoke.cont23, %if.end22, %invoke.cont21, %if.then15, %if.then, %invoke.cont8, %invoke.cont6, %invoke.cont4, %invoke.cont2, %invoke.cont, %entry
  %5 = landingpad { ptr, i32 }
          cleanup
  %6 = extractvalue { ptr, i32 } %5, 0
  store ptr %6, ptr %exn.slot, align 8
  %7 = extractvalue { ptr, i32 } %5, 1
  store i32 %7, ptr %ehselector.slot, align 4
  br label %ehcleanup

if.else:                                          ; preds = %invoke.cont10
  %8 = load i64, ptr %numChannels.addr, align 8
  %cmp14 = icmp eq i64 %8, 3
  br i1 %cmp14, label %if.then15, label %if.else19

if.then15:                                        ; preds = %if.else
  %call17 = invoke noundef ptr @_ZN19OpenColorIO_v2_4dev15PackedImageDesc7getImplEv(ptr noundef nonnull align 8 dereferenceable(16) %this1)
          to label %invoke.cont16 unwind label %lpad

invoke.cont16:                                    ; preds = %if.then15
  %m_chanOrder18 = getelementptr inbounds %"struct.OpenColorIO_v2_4dev::PackedImageDesc::Impl", ptr %call17, i32 0, i32 5
  store i32 3, ptr %m_chanOrder18, align 8
  br label %if.end

if.else19:                                        ; preds = %if.else
  %exception = call ptr @__cxa_allocate_exception(i64 16) #3
  invoke void @_ZN19OpenColorIO_v2_4dev9ExceptionC1EPKc(ptr noundef nonnull align 8 dereferenceable(16) %exception, ptr noundef @.str.19)
          to label %invoke.cont21 unwind label %lpad20

invoke.cont21:                                    ; preds = %if.else19
  invoke void @__cxa_throw(ptr %exception, ptr @_ZTIN19OpenColorIO_v2_4dev9ExceptionE, ptr @_ZN19OpenColorIO_v2_4dev9ExceptionD1Ev) #15
          to label %unreachable unwind label %lpad

lpad20:                                           ; preds = %if.else19
  %9 = landingpad { ptr, i32 }
          cleanup
  %10 = extractvalue { ptr, i32 } %9, 0
  store ptr %10, ptr %exn.slot, align 8
  %11 = extractvalue { ptr, i32 } %9, 1
  store i32 %11, ptr %ehselector.slot, align 4
  call void @__cxa_free_exception(ptr %exception) #3
  br label %ehcleanup

if.end:                                           ; preds = %invoke.cont16
  br label %if.end22

if.end22:                                         ; preds = %if.end, %invoke.cont12
  store i32 4, ptr %oneChannelInBytes, align 4
  %call24 = invoke noundef ptr @_ZN19OpenColorIO_v2_4dev15PackedImageDesc7getImplEv(ptr noundef nonnull align 8 dereferenceable(16) %this1)
          to label %invoke.cont23 unwind label %lpad

invoke.cont23:                                    ; preds = %if.end22
  %m_chanStrideBytes = getelementptr inbounds %"struct.OpenColorIO_v2_4dev::PackedImageDesc::Impl", ptr %call24, i32 0, i32 10
  store i64 4, ptr %m_chanStrideBytes, align 8
  %call26 = invoke noundef ptr @_ZN19OpenColorIO_v2_4dev15PackedImageDesc7getImplEv(ptr noundef nonnull align 8 dereferenceable(16) %this1)
          to label %invoke.cont25 unwind label %lpad

invoke.cont25:                                    ; preds = %invoke.cont23
  %m_chanStrideBytes27 = getelementptr inbounds %"struct.OpenColorIO_v2_4dev::PackedImageDesc::Impl", ptr %call26, i32 0, i32 10
  %12 = load i64, ptr %m_chanStrideBytes27, align 8
  %call29 = invoke noundef ptr @_ZN19OpenColorIO_v2_4dev15PackedImageDesc7getImplEv(ptr noundef nonnull align 8 dereferenceable(16) %this1)
          to label %invoke.cont28 unwind label %lpad

invoke.cont28:                                    ; preds = %invoke.cont25
  %m_numChannels30 = getelementptr inbounds %"struct.OpenColorIO_v2_4dev::PackedImageDesc::Impl", ptr %call29, i32 0, i32 9
  %13 = load i64, ptr %m_numChannels30, align 8
  %mul = mul nsw i64 %12, %13
  %call32 = invoke noundef ptr @_ZN19OpenColorIO_v2_4dev15PackedImageDesc7getImplEv(ptr noundef nonnull align 8 dereferenceable(16) %this1)
          to label %invoke.cont31 unwind label %lpad

invoke.cont31:                                    ; preds = %invoke.cont28
  %m_xStrideBytes = getelementptr inbounds %"struct.OpenColorIO_v2_4dev::PackedImageDesc::Impl", ptr %call32, i32 0, i32 11
  store i64 %mul, ptr %m_xStrideBytes, align 8
  %call34 = invoke noundef ptr @_ZN19OpenColorIO_v2_4dev15PackedImageDesc7getImplEv(ptr noundef nonnull align 8 dereferenceable(16) %this1)
          to label %invoke.cont33 unwind label %lpad

invoke.cont33:                                    ; preds = %invoke.cont31
  %m_xStrideBytes35 = getelementptr inbounds %"struct.OpenColorIO_v2_4dev::PackedImageDesc::Impl", ptr %call34, i32 0, i32 11
  %14 = load i64, ptr %m_xStrideBytes35, align 8
  %15 = load i64, ptr %width.addr, align 8
  %mul36 = mul nsw i64 %14, %15
  %call38 = invoke noundef ptr @_ZN19OpenColorIO_v2_4dev15PackedImageDesc7getImplEv(ptr noundef nonnull align 8 dereferenceable(16) %this1)
          to label %invoke.cont37 unwind label %lpad

invoke.cont37:                                    ; preds = %invoke.cont33
  %m_yStrideBytes = getelementptr inbounds %"struct.OpenColorIO_v2_4dev::PackedImageDesc::Impl", ptr %call38, i32 0, i32 12
  store i64 %mul36, ptr %m_yStrideBytes, align 8
  %call40 = invoke noundef ptr @_ZN19OpenColorIO_v2_4dev15PackedImageDesc7getImplEv(ptr noundef nonnull align 8 dereferenceable(16) %this1)
          to label %invoke.cont39 unwind label %lpad

invoke.cont39:                                    ; preds = %invoke.cont37
  invoke void @_ZN19OpenColorIO_v2_4dev15PackedImageDesc4Impl10initValuesEv(ptr noundef nonnull align 8 dereferenceable(98) %call40)
          to label %invoke.cont41 unwind label %lpad

invoke.cont41:                                    ; preds = %invoke.cont39
  %call43 = invoke noundef ptr @_ZN19OpenColorIO_v2_4dev15PackedImageDesc7getImplEv(ptr noundef nonnull align 8 dereferenceable(16) %this1)
          to label %invoke.cont42 unwind label %lpad

invoke.cont42:                                    ; preds = %invoke.cont41
  %call45 = invoke noundef zeroext i1 @_ZNK19OpenColorIO_v2_4dev15PackedImageDesc4Impl12isRGBAPackedEv(ptr noundef nonnull align 8 dereferenceable(98) %call43)
          to label %invoke.cont44 unwind label %lpad

invoke.cont44:                                    ; preds = %invoke.cont42
  %call47 = invoke noundef ptr @_ZN19OpenColorIO_v2_4dev15PackedImageDesc7getImplEv(ptr noundef nonnull align 8 dereferenceable(16) %this1)
          to label %invoke.cont46 unwind label %lpad

invoke.cont46:                                    ; preds = %invoke.cont44
  %m_isRGBAPacked = getelementptr inbounds %"struct.OpenColorIO_v2_4dev::PackedImageDesc::Impl", ptr %call47, i32 0, i32 13
  %frombool = zext i1 %call45 to i8
  store i8 %frombool, ptr %m_isRGBAPacked, align 8
  %call49 = invoke noundef ptr @_ZN19OpenColorIO_v2_4dev15PackedImageDesc7getImplEv(ptr noundef nonnull align 8 dereferenceable(16) %this1)
          to label %invoke.cont48 unwind label %lpad

invoke.cont48:                                    ; preds = %invoke.cont46
  %call51 = invoke noundef zeroext i1 @_ZNK19OpenColorIO_v2_4dev15PackedImageDesc4Impl7isFloatEv(ptr noundef nonnull align 8 dereferenceable(98) %call49)
          to label %invoke.cont50 unwind label %lpad

invoke.cont50:                                    ; preds = %invoke.cont48
  %call53 = invoke noundef ptr @_ZN19OpenColorIO_v2_4dev15PackedImageDesc7getImplEv(ptr noundef nonnull align 8 dereferenceable(16) %this1)
          to label %invoke.cont52 unwind label %lpad

invoke.cont52:                                    ; preds = %invoke.cont50
  %m_isFloat = getelementptr inbounds %"struct.OpenColorIO_v2_4dev::PackedImageDesc::Impl", ptr %call53, i32 0, i32 14
  %frombool54 = zext i1 %call51 to i8
  store i8 %frombool54, ptr %m_isFloat, align 1
  %call56 = invoke noundef ptr @_ZN19OpenColorIO_v2_4dev15PackedImageDesc7getImplEv(ptr noundef nonnull align 8 dereferenceable(16) %this1)
          to label %invoke.cont55 unwind label %lpad

invoke.cont55:                                    ; preds = %invoke.cont52
  invoke void @_ZNK19OpenColorIO_v2_4dev15PackedImageDesc4Impl8validateEv(ptr noundef nonnull align 8 dereferenceable(98) %call56)
          to label %invoke.cont57 unwind label %lpad

invoke.cont57:                                    ; preds = %invoke.cont55
  ret void

ehcleanup:                                        ; preds = %lpad20, %lpad
  call void @_ZN19OpenColorIO_v2_4dev9ImageDescD2Ev(ptr noundef nonnull align 8 dereferenceable(8) %this1) #3
  br label %eh.resume

eh.resume:                                        ; preds = %ehcleanup
  %exn = load ptr, ptr %exn.slot, align 8
  %sel = load i32, ptr %ehselector.slot, align 4
  %lpad.val = insertvalue { ptr, i32 } poison, ptr %exn, 0
  %lpad.val58 = insertvalue { ptr, i32 } %lpad.val, i32 %sel, 1
  resume { ptr, i32 } %lpad.val58

unreachable:                                      ; preds = %invoke.cont21
  unreachable
}